Certificate:
    Data:
        Version: 3 (0x2)
        Serial Number: 1193047 (0x123457)
    Signature Algorithm: sha256WithRSAEncryption
        Issuer: C=IN, ST=UP, L=Noida, O=JBoss, OU=Keycloak, CN=giriraj/emailAddress=server@gmail.com
        Validity
            Not Before: Aug 13 16:41:11 2015 GMT
            Not After : Aug  7 16:41:11 2016 GMT
        Subject: C=IN, ST=UP, L=Noida, O=pICKETLINK, OU=jboSS, CN=client/emailAddress=client@gmail.com
        Subject Public Key Info:
            Public Key Algorithm: rsaEncryption
                Public-Key: (2048 bit)
                Modulus:
                    00:ad:9b:96:0f:0f:52:5f:80:56:fa:00:92:9b:24:
                    6e:a9:61:51:63:1e:b6:57:24:67:18:0a:6c:a0:79:
                    9f:57:22:44:48:a9:91:79:ad:f9:73:b2:9b:fa:d0:
                    61:d2:73:0d:48:76:fa:e4:e5:a5:48:a7:96:2b:0d:
                    96:ba:dc:78:6a:0a:18:3e:ef:b1:ab:26:d0:03:70:
                    76:e5:a8:61:2d:c5:3d:f8:5c:e9:f7:be:0f:53:5d:
                    cd:ca:f3:33:a1:1e:c4:2c:ad:4d:0d:fd:d6:a5:46:
                    4e:53:dc:0d:72:13:05:29:b9:75:75:07:d8:1b:c0:
                    0d:aa:2f:de:f8:87:05:2e:29:d5:b6:d3:df:87:97:
                    aa:09:d4:11:4c:9d:b1:1d:75:f4:0a:7b:45:ca:66:
                    5f:8b:71:6d:5d:7d:b7:70:a1:00:bd:b3:38:ff:ba:
                    83:1b:5c:4d:be:02:b0:89:8d:7e:61:72:94:60:d2:
                    28:fd:7a:26:7f:5e:11:c2:66:2d:1d:b5:e2:19:b0:
                    15:af:c4:d2:2d:26:53:2d:52:5f:a9:89:1b:64:5b:
                    78:db:87:6f:23:69:00:c6:70:06:00:1e:46:51:91:
                    e9:4c:e2:d2:17:26:86:42:44:35:03:d2:1a:3d:79:
                    c3:5b:f6:db:bd:1b:25:ca:c0:6c:92:70:a9:84:7b:
                    09:c5
                Exponent: 65537 (0x10001)
        X509v3 extensions:
            X509v3 Basic Constraints: 
                CA:FALSE
            Netscape Comment: 
                OpenSSL Generated Certificate
            X509v3 Subject Key Identifier: 
                B6:62:FE:CC:87:C4:10:33:49:14:B9:30:B6:31:18:7C:8C:C5:E5:23
            X509v3 Authority Key Identifier: 
                keyid:C1:D2:D8:EC:10:BA:15:E2:5E:6D:2E:E7:3C:9C:D0:66:5C:93:4F:97

    Signature Algorithm: sha256WithRSAEncryption
         9e:19:8c:5b:0d:89:cc:d4:52:30:e4:d2:1c:28:5e:d1:4c:52:
         e4:10:e7:71:24:75:ed:0f:f4:61:d8:fb:76:0e:c6:4f:12:f4:
         b1:50:db:c4:4f:3f:65:0e:c7:3d:37:ea:90:5c:cb:c8:cd:35:
         a4:cf:49:73:67:27:63:d8:7e:80:c1:bf:70:a4:30:c1:18:7a:
         dd:2f:0b:ca:4f:16:7e:96:bc:78:fb:b4:4b:4b:a5:e6:f2:1e:
         47:7c:3c:41:fb:9c:37:9b:d6:76:4e:3c:36:72:11:b1:bb:2f:
         79:65:42:44:f8:8f:6c:6e:17:1e:ff:e4:0d:a4:43:37:5a:1e:
         e7:f2:0d:63:ae:a1:6d:89:05:73:da:74:60:f5:a6:74:0c:48:
         82:99:35:4f:1d:5e:f7:66:e7:92:3a:6e:be:8b:b2:d3:92:b3:
         80:16:f2:ba:a5:83:ef:0c:97:e8:c9:f2:d4:8d:11:c6:b5:df:
         12:11:13:f9:1b:b8:b3:f0:31:0c:d3:13:2e:19:c6:0a:cb:3a:
         99:a9:07:4d:72:ce:b3:3e:0d:3d:29:7d:84:45:a9:54:96:80:
         42:98:d4:a5:64:80:9c:c9:f6:bf:4f:f2:c5:5f:20:e6:78:90:
         6c:71:e3:2b:9b:6e:25:0a:81:67:bf:48:d0:9c:c9:70:fe:d3:
         ab:51:36:f3
-----BEGIN CERTIFICATE-----
MIID+zCCAuOgAwIBAgIDEjRXMA0GCSqGSIb3DQEBCwUAMIGAMQswCQYDVQQGEwJJ
TjELMAkGA1UECAwCVVAxDjAMBgNVBAcMBU5vaWRhMQ4wDAYDVQQKDAVKQm9zczER
MA8GA1UECwwIS2V5Y2xvYWsxEDAOBgNVBAMMB2dpcmlyYWoxHzAdBgkqhkiG9w0B
CQEWEHNlcnZlckBnbWFpbC5jb20wHhcNMTUwODEzMTY0MTExWhcNMTYwODA3MTY0
MTExWjCBgTELMAkGA1UEBhMCSU4xCzAJBgNVBAgMAlVQMQ4wDAYDVQQHDAVOb2lk
YTETMBEGA1UECgwKcElDS0VUTElOSzEOMAwGA1UECwwFamJvU1MxDzANBgNVBAMM
BmNsaWVudDEfMB0GCSqGSIb3DQEJARYQY2xpZW50QGdtYWlsLmNvbTCCASIwDQYJ
KoZIhvcNAQEBBQADggEPADCCAQoCggEBAK2blg8PUl+AVvoAkpskbqlhUWMetlck
ZxgKbKB5n1ciREipkXmt+XOym/rQYdJzDUh2+uTlpUinlisNlrrceGoKGD7vsasm
0ANwduWoYS3FPfhc6fe+D1NdzcrzM6EexCytTQ391qVGTlPcDXITBSm5dXUH2BvA
Daov3viHBS4p1bbT34eXqgnUEUydsR119Ap7RcpmX4txbV19t3ChAL2zOP+6gxtc
Tb4CsImNfmFylGDSKP16Jn9eEcJmLR214hmwFa/E0i0mUy1SX6mJG2RbeNuHbyNp
AMZwBgAeRlGR6Uzi0hcmhkJENQPSGj15w1v2270bJcrAbJJwqYR7CcUCAwEAAaN7
MHkwCQYDVR0TBAIwADAsBglghkgBhvhCAQ0EHxYdT3BlblNTTCBHZW5lcmF0ZWQg
Q2VydGlmaWNhdGUwHQYDVR0OBBYEFLZi/syHxBAzSRS5MLYxGHyMxeUjMB8GA1Ud
IwQYMBaAFMHS2OwQuhXiXm0u5zyc0GZck0+XMA0GCSqGSIb3DQEBCwUAA4IBAQCe
GYxbDYnM1FIw5NIcKF7RTFLkEOdxJHXtD/Rh2Pt2DsZPEvSxUNvETz9lDsc9N+qQ
XMvIzTWkz0lzZydj2H6Awb9wpDDBGHrdLwvKTxZ+lrx4+7RLS6Xm8h5HfDxB+5w3
m9Z2Tjw2chGxuy95ZUJE+I9sbhce/+QNpEM3Wh7n8g1jrqFtiQVz2nRg9aZ0DEiC
mTVPHV73ZueSOm6+i7LTkrOAFvK6pYPvDJfoyfLUjRHGtd8SERP5G7iz8DEM0xMu
GcYKyzqZqQdNcs6zPg09KX2ERalUloBCmNSlZICcyfa/T/LFXyDmeJBsceMrm24l
CoFnv0jQnMlw/tOrUTbz
-----END CERTIFICATE-----
