Certificate:
    Data:
        Version: 3 (0x2)
        Serial Number: 1193046 (0x123456)
    Signature Algorithm: sha256WithRSAEncryption
        Issuer: C=IN, ST=UP, L=Noida, O=JBoss, OU=Keycloak, CN=giriraj/emailAddress=server@gmail.com
        Validity
            Not Before: Aug 13 16:38:21 2015 GMT
            Not After : Aug  7 16:38:21 2016 GMT
        Subject: C=IN, ST=UP, O=JBoss, OU=Keycloak, CN=server/emailAddress=server
        Subject Public Key Info:
            Public Key Algorithm: rsaEncryption
                Public-Key: (2048 bit)
                Modulus:
                    00:af:ce:52:35:69:87:a8:fd:da:86:22:ad:a1:e5:
                    54:10:bd:00:36:79:4a:e1:be:16:0c:b7:28:71:12:
                    f1:41:a8:e3:8c:40:fc:22:b9:d8:a7:67:87:f4:5c:
                    7c:d8:9b:38:3d:e9:4c:e6:57:bd:13:db:cf:01:b2:
                    1f:ee:84:5e:62:c2:c5:25:3c:23:5b:7c:0c:a3:46:
                    1a:1c:ff:82:bd:5c:c2:f7:c1:46:7e:6f:de:87:0b:
                    d4:8f:68:cd:18:1c:4f:7b:39:11:40:09:25:96:d9:
                    4c:e7:96:87:84:32:10:d5:77:4b:67:72:ff:42:22:
                    2f:8e:db:22:c4:f1:bc:d9:9c:14:00:29:1f:96:4b:
                    56:52:50:07:40:bc:e6:c4:2e:c1:6e:70:fa:a5:5a:
                    58:7e:54:91:68:50:0d:da:df:a7:67:3b:13:87:bc:
                    b3:d4:48:0e:58:da:f1:97:75:c1:f2:43:ec:4a:bf:
                    42:9f:15:ef:0a:b1:98:76:f2:b3:65:86:6e:11:16:
                    fa:46:46:d5:ba:bf:55:97:0a:96:af:f5:e1:ef:34:
                    20:b7:98:d5:2d:79:08:34:e1:c4:14:1e:47:79:f0:
                    87:f7:7b:f5:ac:60:7f:d1:fa:b4:a7:6f:44:86:73:
                    7e:c1:ae:15:c2:c6:af:48:35:83:5a:1e:80:4a:23:
                    08:c5
                Exponent: 65537 (0x10001)
        X509v3 extensions:
            X509v3 Basic Constraints: 
                CA:FALSE
            Netscape Comment: 
                OpenSSL Generated Certificate
            X509v3 Subject Key Identifier: 
                15:E8:A9:AB:39:50:F9:5B:B3:85:F0:E4:8B:42:6D:67:5B:BC:4E:FF
            X509v3 Authority Key Identifier: 
                keyid:C1:D2:D8:EC:10:BA:15:E2:5E:6D:2E:E7:3C:9C:D0:66:5C:93:4F:97

    Signature Algorithm: sha256WithRSAEncryption
         a8:c1:39:21:f6:c4:f1:48:3e:66:f4:64:ce:6b:cc:d4:40:3c:
         3e:b4:d6:32:4e:54:50:83:82:c0:60:24:9a:18:bf:7b:b8:93:
         f7:78:20:44:89:ed:1e:c0:2e:c7:f6:70:8e:ef:32:3c:d9:fa:
         93:6e:da:1c:65:a5:1b:6f:2f:c6:39:33:10:12:aa:cc:e5:09:
         23:d0:7d:0d:f4:ed:f8:e7:b5:c1:7b:b0:c1:92:68:45:b2:ee:
         94:7d:58:97:16:5c:27:18:6d:4a:55:fd:b7:bc:15:6c:b4:dd:
         e6:16:ca:e8:8e:5b:d4:a5:5c:93:35:68:82:10:95:ab:ba:62:
         bf:6f:68:e8:83:60:f0:fc:97:4d:19:32:7b:8e:6e:df:36:f8:
         ec:19:d3:11:d7:43:1c:d7:43:13:c2:3d:eb:ee:c8:97:a9:bf:
         b6:d3:6d:c0:f0:66:e1:50:2a:28:5f:4f:af:c5:00:45:ba:2c:
         fb:da:d2:4d:b4:79:30:b0:b5:5e:21:98:b3:f7:2a:38:40:bc:
         6f:72:2c:5f:8b:2d:de:57:ba:5e:af:df:94:9d:1b:77:80:97:
         2f:71:48:5d:8e:e7:c1:2c:3f:fc:04:3c:a4:3d:fd:d9:55:55:
         22:5f:3c:6f:1b:13:3c:2b:60:48:0f:c6:6b:98:11:2d:a2:e0:
         61:07:9a:63
-----BEGIN CERTIFICATE-----
MIID3jCCAsagAwIBAgIDEjRWMA0GCSqGSIb3DQEBCwUAMIGAMQswCQYDVQQGEwJJ
TjELMAkGA1UECAwCVVAxDjAMBgNVBAcMBU5vaWRhMQ4wDAYDVQQKDAVKQm9zczER
MA8GA1UECwwIS2V5Y2xvYWsxEDAOBgNVBAMMB2dpcmlyYWoxHzAdBgkqhkiG9w0B
CQEWEHNlcnZlckBnbWFpbC5jb20wHhcNMTUwODEzMTYzODIxWhcNMTYwODA3MTYz
ODIxWjBlMQswCQYDVQQGEwJJTjELMAkGA1UECAwCVVAxDjAMBgNVBAoMBUpCb3Nz
MREwDwYDVQQLDAhLZXljbG9hazEPMA0GA1UEAwwGc2VydmVyMRUwEwYJKoZIhvcN
AQkBFgZzZXJ2ZXIwggEiMA0GCSqGSIb3DQEBAQUAA4IBDwAwggEKAoIBAQCvzlI1
aYeo/dqGIq2h5VQQvQA2eUrhvhYMtyhxEvFBqOOMQPwiudinZ4f0XHzYmzg96Uzm
V70T288Bsh/uhF5iwsUlPCNbfAyjRhoc/4K9XML3wUZ+b96HC9SPaM0YHE97ORFA
CSWW2UznloeEMhDVd0tncv9CIi+O2yLE8bzZnBQAKR+WS1ZSUAdAvObELsFucPql
Wlh+VJFoUA3a36dnOxOHvLPUSA5Y2vGXdcHyQ+xKv0KfFe8KsZh28rNlhm4RFvpG
RtW6v1WXCpav9eHvNCC3mNUteQg04cQUHkd58If3e/WsYH/R+rSnb0SGc37BrhXC
xq9INYNaHoBKIwjFAgMBAAGjezB5MAkGA1UdEwQCMAAwLAYJYIZIAYb4QgENBB8W
HU9wZW5TU0wgR2VuZXJhdGVkIENlcnRpZmljYXRlMB0GA1UdDgQWBBQV6KmrOVD5
W7OF8OSLQm1nW7xO/zAfBgNVHSMEGDAWgBTB0tjsELoV4l5tLuc8nNBmXJNPlzAN
BgkqhkiG9w0BAQsFAAOCAQEAqME5IfbE8Ug+ZvRkzmvM1EA8PrTWMk5UUIOCwGAk
mhi/e7iT93ggRIntHsAux/Zwju8yPNn6k27aHGWlG28vxjkzEBKqzOUJI9B9DfTt
+Oe1wXuwwZJoRbLulH1YlxZcJxhtSlX9t7wVbLTd5hbK6I5b1KVckzVoghCVq7pi
v29o6INg8PyXTRkye45u3zb47BnTEddDHNdDE8I96+7Il6m/ttNtwPBm4VAqKF9P
r8UARbos+9rSTbR5MLC1XiGYs/cqOEC8b3IsX4st3le6Xq/flJ0bd4CXL3FIXY7n
wSw//AQ8pD392VVVIl88bxsTPCtgSA/Ga5gRLaLgYQeaYw==
-----END CERTIFICATE-----
